; ModuleID = '40/2805.c'
source_filename = "40/2805.c"
target datalayout = "e-m:e-p270:32:32-p271:32:32-p272:64:64-i64:64-f80:128-n8:16:32:64-S128"
target triple = "x86_64-pc-linux-gnu"

@.str = private unnamed_addr constant [16 x i8] c"%lf%lf%lf%lf%lf\00", align 1
@.str.1 = private unnamed_addr constant [15 x i8] c"Invalid input\0A\00", align 1
@.str.2 = private unnamed_addr constant [7 x i8] c"%.4lf\0A\00", align 1

; Function Attrs: noinline nounwind uwtable
define dso_local double @area(double %0, double %1, double %2, double %3, double %4) #0 {
  %6 = alloca double, align 8
  %7 = alloca double, align 8
  %8 = alloca double, align 8
  %9 = alloca double, align 8
  %10 = alloca double, align 8
  %11 = alloca double, align 8
  %12 = alloca double, align 8
  %13 = alloca double, align 8
  %14 = alloca double, align 8
  %15 = alloca double, align 8
  store double %0, double* %7, align 8
  store double %1, double* %8, align 8
  store double %2, double* %9, align 8
  store double %3, double* %10, align 8
  store double %4, double* %11, align 8
  %16 = load double, double* %11, align 8
  %17 = fmul double 1.000000e+02, %16
  %18 = fdiv double %17, 3.600000e+02
  store double %18, double* %15, align 8
  %19 = load double, double* %7, align 8
  %20 = load double, double* %8, align 8
  %21 = fadd double %19, %20
  %22 = load double, double* %9, align 8
  %23 = fadd double %21, %22
  %24 = load double, double* %10, align 8
  %25 = fadd double %23, %24
  %26 = fdiv double %25, 2.000000e+00
  store double %26, double* %12, align 8
  %27 = load double, double* %12, align 8
  %28 = load double, double* %7, align 8
  %29 = fsub double %27, %28
  %30 = load double, double* %12, align 8
  %31 = load double, double* %8, align 8
  %32 = fsub double %30, %31
  %33 = fmul double %29, %32
  %34 = load double, double* %12, align 8
  %35 = load double, double* %9, align 8
  %36 = fsub double %34, %35
  %37 = fmul double %33, %36
  %38 = load double, double* %12, align 8
  %39 = load double, double* %10, align 8
  %40 = fsub double %38, %39
  %41 = fmul double %37, %40
  %42 = load double, double* %7, align 8
  %43 = load double, double* %8, align 8
  %44 = fmul double %42, %43
  %45 = load double, double* %9, align 8
  %46 = fmul double %44, %45
  %47 = load double, double* %10, align 8
  %48 = fmul double %46, %47
  %49 = load double, double* %15, align 8
  %50 = call double @cos(double %49) #3
  %51 = fmul double %48, %50
  %52 = load double, double* %15, align 8
  %53 = call double @cos(double %52) #3
  %54 = fmul double %51, %53
  %55 = fsub double %41, %54
  store double %55, double* %13, align 8
  %56 = load double, double* %13, align 8
  %57 = fcmp olt double %56, 0.000000e+00
  br i1 %57, label %58, label %59

58:                                               ; preds = %5
  store double -1.000000e+00, double* %6, align 8
  br label %66

59:                                               ; preds = %5
  %60 = load double, double* %13, align 8
  %61 = fcmp oge double %60, 0.000000e+00
  br i1 %61, label %62, label %66

62:                                               ; preds = %59
  %63 = load double, double* %13, align 8
  %64 = call double @sqrt(double %63) #3
  store double %64, double* %14, align 8
  %65 = load double, double* %14, align 8
  store double %65, double* %6, align 8
  br label %66

66:                                               ; preds = %58, %62, %59
  %67 = load double, double* %6, align 8
  ret double %67
}

; Function Attrs: nounwind
declare dso_local double @cos(double) #1

; Function Attrs: nounwind
declare dso_local double @sqrt(double) #1

; Function Attrs: noinline nounwind uwtable
define dso_local i32 @main() #0 {
  %1 = alloca i32, align 4
  %2 = alloca double, align 8
  %3 = alloca double, align 8
  %4 = alloca double, align 8
  %5 = alloca double, align 8
  %6 = alloca double, align 8
  store i32 0, i32* %1, align 4
  %7 = call i32 (i8*, ...) @__isoc99_scanf(i8* getelementptr inbounds ([16 x i8], [16 x i8]* @.str, i64 0, i64 0), double* %2, double* %3, double* %4, double* %5, double* %6)
  %8 = load double, double* %2, align 8
  %9 = load double, double* %3, align 8
  %10 = load double, double* %4, align 8
  %11 = load double, double* %5, align 8
  %12 = load double, double* %6, align 8
  %13 = call double @area(double %8, double %9, double %10, double %11, double %12)
  %14 = fcmp oeq double %13, -1.000000e+00
  br i1 %14, label %15, label %17

15:                                               ; preds = %0
  %16 = call i32 (i8*, ...) @printf(i8* getelementptr inbounds ([15 x i8], [15 x i8]* @.str.1, i64 0, i64 0))
  br label %25

17:                                               ; preds = %0
  %18 = load double, double* %2, align 8
  %19 = load double, double* %3, align 8
  %20 = load double, double* %4, align 8
  %21 = load double, double* %5, align 8
  %22 = load double, double* %6, align 8
  %23 = call double @area(double %18, double %19, double %20, double %21, double %22)
  %24 = call i32 (i8*, ...) @printf(i8* getelementptr inbounds ([7 x i8], [7 x i8]* @.str.2, i64 0, i64 0), double %23)
  br label %25

25:                                               ; preds = %17, %15
  ret i32 0
}

declare dso_local i32 @__isoc99_scanf(i8*, ...) #2

declare dso_local i32 @printf(i8*, ...) #2


!llvm.module.flags = !{!0}
!llvm.ident = !{!1}

!0 = !{i32 1, !"wchar_size", i32 4}
!1 = !{!"clang version 10.0.0-4ubuntu1 "}
